; Function Attrs: nounwind uwtable
define dso_local ptr @yyjson_doc_mut_copy(ptr noundef readonly captures(address_is_null) %0, ptr noundef readonly captures(address_is_null) %1) local_unnamed_addr #8 {
  %.not = icmp eq ptr %0, null
  br i1 %.not, label %yyjson_mut_doc_new.exit.thread, label %3

3:                                                ; preds = %2
  %4 = load ptr, ptr %0, align 8, !tbaa !69
  %.not15 = icmp eq ptr %4, null
  br i1 %.not15, label %yyjson_mut_doc_new.exit.thread, label %5

5:                                                ; preds = %3
  %.not.i = icmp eq ptr %1, null
  %spec.store.select.i = select i1 %.not.i, ptr @YYJSON_DEFAULT_ALC, ptr %1
  %6 = load ptr, ptr %spec.store.select.i, align 8, !tbaa !18
  %7 = getelementptr inbounds nuw i8, ptr %spec.store.select.i, i64 24
  %8 = load ptr, ptr %7, align 8, !tbaa !22
  %9 = tail call ptr %6(ptr noundef %8, i64 noundef 120) #31
  %.not14.i = icmp eq ptr %9, null
  br i1 %.not14.i, label %yyjson_mut_doc_new.exit.thread, label %10

10:                                               ; preds = %5
  tail call void @llvm.memset.p0.i64(ptr noundef nonnull align 8 dereferenceable(120) %9, i8 0, i64 120, i1 false)
  %11 = getelementptr inbounds nuw i8, ptr %9, i64 8
  tail call void @llvm.memcpy.p0.p0.i64(ptr noundef nonnull align 8 dereferenceable(32) %11, ptr noundef nonnull align 8 dereferenceable(32) %spec.store.select.i, i64 32, i1 false), !tbaa.struct !5
  %12 = getelementptr inbounds nuw i8, ptr %9, i64 56
  store i64 256, ptr %12, align 8, !tbaa !62
  %13 = getelementptr inbounds nuw i8, ptr %9, i64 64
  store i64 268435456, ptr %13, align 8, !tbaa !67
  %14 = getelementptr inbounds nuw i8, ptr %9, i64 96
  store i64 384, ptr %14, align 8, !tbaa !64
  %15 = getelementptr inbounds nuw i8, ptr %9, i64 104
  store i64 402653184, ptr %15, align 8, !tbaa !68
  %16 = load ptr, ptr %0, align 8, !tbaa !69
  %17 = tail call ptr @yyjson_val_mut_copy(ptr noundef nonnull %9, ptr noundef %16)
  %.not17 = icmp eq ptr %17, null
  br i1 %.not17, label %18, label %25

18:                                               ; preds = %10
  %.sroa.3.0..sroa_idx.i = getelementptr inbounds nuw i8, ptr %9, i64 24
  %.sroa.3.0.copyload.i = load ptr, ptr %.sroa.3.0..sroa_idx.i, align 8, !tbaa !6
  %.sroa.6.0..sroa_idx.i = getelementptr inbounds nuw i8, ptr %9, i64 32
  %.sroa.6.0.copyload.i = load ptr, ptr %.sroa.6.0..sroa_idx.i, align 8, !tbaa !6
  tail call void @llvm.memset.p0.i64(ptr noundef nonnull align 8 dereferenceable(32) %11, i8 0, i64 32, i1 false)
  %19 = getelementptr inbounds nuw i8, ptr %9, i64 72
  %20 = load ptr, ptr %19, align 8, !tbaa !44
  %.not.i12.i = icmp eq ptr %20, null
  br i1 %.not.i12.i, label %unsafe_yyjson_str_pool_release.exit.i, label %.lr.ph.i

.lr.ph.i:                                         ; preds = %18, %.lr.ph.i
  %.0.i13.i = phi ptr [ %21, %.lr.ph.i ], [ %20, %18 ]
  %21 = load ptr, ptr %.0.i13.i, align 8, !tbaa !45
  tail call void %.sroa.3.0.copyload.i(ptr noundef %.sroa.6.0.copyload.i, ptr noundef nonnull %.0.i13.i) #31
  %.not.i.i = icmp eq ptr %21, null
  br i1 %.not.i.i, label %unsafe_yyjson_str_pool_release.exit.i, label %.lr.ph.i, !llvm.loop !65

unsafe_yyjson_str_pool_release.exit.i:            ; preds = %.lr.ph.i, %18
  %22 = getelementptr inbounds nuw i8, ptr %9, i64 112
  %23 = load ptr, ptr %22, align 8, !tbaa !55
  %.not.i714.i = icmp eq ptr %23, null
  br i1 %.not.i714.i, label %yyjson_mut_doc_free.exit, label %.lr.ph16.i

.lr.ph16.i:                                       ; preds = %unsafe_yyjson_str_pool_release.exit.i, %.lr.ph16.i
  %.0.i615.i = phi ptr [ %24, %.lr.ph16.i ], [ %23, %unsafe_yyjson_str_pool_release.exit.i ]
  %24 = load ptr, ptr %.0.i615.i, align 8, !tbaa !56
  tail call void %.sroa.3.0.copyload.i(ptr noundef %.sroa.6.0.copyload.i, ptr noundef nonnull %.0.i615.i) #31
  %.not.i7.i = icmp eq ptr %24, null
  br i1 %.not.i7.i, label %yyjson_mut_doc_free.exit, label %.lr.ph16.i, !llvm.loop !66

yyjson_mut_doc_free.exit:                         ; preds = %.lr.ph16.i, %unsafe_yyjson_str_pool_release.exit.i
  tail call void %.sroa.3.0.copyload.i(ptr noundef %.sroa.6.0.copyload.i, ptr noundef nonnull %9) #31
  br label %yyjson_mut_doc_new.exit.thread

25:                                               ; preds = %10
  store ptr %17, ptr %9, align 8, !tbaa !72
  br label %yyjson_mut_doc_new.exit.thread

yyjson_mut_doc_new.exit.thread:                   ; preds = %5, %2, %3, %25, %yyjson_mut_doc_free.exit
  %.0 = phi ptr [ %9, %25 ], [ null, %yyjson_mut_doc_free.exit ], [ null, %3 ], [ null, %2 ], [ null, %5 ]
  ret ptr %.0
}